target datalayout = "e-m:e-p270:32:32-p271:32:32-p272:64:64-i64:64-i128:128-f80:128-n8:16:32:64-S128"
target triple = "x86_64-pc-linux-gnu"

%struct.anon = type { i32, [0 x i8] }

; Function Attrs: nounwind uwtable
define dso_local signext i8 @range_get_flags(ptr noundef %0) #0 {
  %2 = alloca ptr, align 8
  store ptr %0, ptr %2, align 8
  %3 = load ptr, ptr %2, align 8
  %4 = load ptr, ptr %2, align 8
  %5 = getelementptr inbounds nuw %struct.anon, ptr %4, i32 0, i32 0
  %6 = load i32, ptr %5, align 4
  %7 = lshr i32 %6, 2
  %8 = and i32 %7, 1073741823
  %9 = zext i32 %8 to i64
  %10 = getelementptr inbounds nuw i8, ptr %3, i64 %9
  %11 = getelementptr inbounds i8, ptr %10, i64 -1
  %12 = load i8, ptr %11, align 1
  ret i8 %12
}