; Function Attrs: mustprogress nofree norecurse nosync nounwind willreturn memory(argmem: read) uwtable
define dso_local signext i8 @range_get_flags(ptr noundef readonly captures(none) %0) local_unnamed_addr #3 {
  %2 = load i32, ptr %0, align 4
  %3 = lshr i32 %2, 2
  %4 = zext nneg i32 %3 to i64
  %5 = getelementptr inbounds nuw i8, ptr %0, i64 %4
  %6 = getelementptr inbounds i8, ptr %5, i64 -1
  %7 = load i8, ptr %6, align 1
  ret i8 %7
}